; Function Attrs: mustprogress nounwind uwtable
define hidden void @_ZN10NativeCall6verifyEv(ptr noundef nonnull align 1 dereferenceable(1) %0) local_unnamed_addr #0 align 2 {
  %2 = load i8, ptr %0, align 1
  %.not = icmp eq i8 %2, -24
  br i1 %.not, label %8, label %3

3:                                                ; preds = %1
  %4 = zext i8 %2 to i32
  %5 = load ptr, ptr @tty, align 8
  %6 = ptrtoint ptr %0 to i64
  tail call void (ptr, ptr, ...) @_ZN12outputStream8print_crEPKcz(ptr noundef nonnull align 8 dereferenceable(56) %5, ptr noundef nonnull @.str, i64 noundef %6, i32 noundef %4) #7
  %7 = load ptr, ptr @g_assert_poison, align 8
  store i8 88, ptr %7, align 1
  tail call void (i32, ptr, i32, ptr, ...) @_Z12report_fatal11VMErrorTypePKciS1_z(i32 noundef -536870912, ptr noundef nonnull @.str.4, i32 noundef 50, ptr noundef nonnull @.str.5) #8
  unreachable

8:                                                ; preds = %1
  ret void
}